; Function Attrs: nounwind uwtable
define noalias noundef ptr @php_open_temporary_file(ptr noundef %0, ptr noundef %1, ptr noundef %2) local_unnamed_addr #0 {
  %.not.i.i = icmp eq ptr %1, null
  %spec.store.select.i.i = select i1 %.not.i.i, ptr @.str.2, ptr %1
  %.not24.i.i = icmp eq ptr %2, null
  br i1 %.not24.i.i, label %5, label %4

4:                                                ; preds = %3
  store ptr null, ptr %2, align 8
  br label %5

5:                                                ; preds = %4, %3
  %.not25.i.i = icmp eq ptr %0, null
  br i1 %.not25.i.i, label %9, label %6

6:                                                ; preds = %5
  %7 = load i8, ptr %0, align 1
  %8 = icmp eq i8 %7, 0
  br i1 %8, label %9, label %13

9:                                                ; preds = %16, %6, %5
  %10 = tail call ptr @php_get_temporary_directory()
  %.not29.i.i = icmp eq ptr %10, null
  br i1 %.not29.i.i, label %php_open_temporary_fd.exit.thread, label %11

11:                                               ; preds = %9
  %12 = load i8, ptr %10, align 1
  %.not30.i.i = icmp eq i8 %12, 0
  br i1 %.not30.i.i, label %php_open_temporary_fd.exit.thread, label %php_open_temporary_fd.exit

13:                                               ; preds = %6
  %14 = tail call fastcc i32 @php_do_open_temporary_file(ptr noundef nonnull %0, ptr noundef nonnull %spec.store.select.i.i, ptr noundef %2)
  %15 = icmp eq i32 %14, -1
  br i1 %15, label %16, label %php_open_temporary_fd.exit.thread10

16:                                               ; preds = %13
  tail call void (ptr, i32, ptr, ...) @php_error_docref(ptr noundef null, i32 noundef 8, ptr noundef nonnull @.str.3) #9
  br label %9

php_open_temporary_fd.exit:                       ; preds = %11
  %17 = tail call fastcc i32 @php_do_open_temporary_file(ptr noundef nonnull %10, ptr noundef nonnull %spec.store.select.i.i, ptr noundef %2)
  %18 = icmp eq i32 %17, -1
  br i1 %18, label %php_open_temporary_fd.exit.thread, label %php_open_temporary_fd.exit.thread10

php_open_temporary_fd.exit.thread10:              ; preds = %13, %php_open_temporary_fd.exit
  %.0.i.i12 = phi i32 [ %17, %php_open_temporary_fd.exit ], [ %14, %13 ]
  %19 = tail call noalias ptr @fdopen(i32 noundef %.0.i.i12, ptr noundef nonnull @.str.4) #9
  %20 = icmp eq ptr %19, null
  br i1 %20, label %21, label %php_open_temporary_fd.exit.thread

21:                                               ; preds = %php_open_temporary_fd.exit.thread10
  %22 = tail call i32 @close(i32 noundef %.0.i.i12) #9
  br label %php_open_temporary_fd.exit.thread

php_open_temporary_fd.exit.thread:                ; preds = %9, %11, %php_open_temporary_fd.exit.thread10, %21, %php_open_temporary_fd.exit
  %.0 = phi ptr [ null, %php_open_temporary_fd.exit ], [ null, %21 ], [ %19, %php_open_temporary_fd.exit.thread10 ], [ null, %11 ], [ null, %9 ]
  ret ptr %.0
}